Certificate:
    Data:
        Version: 3 (0x2)
        Serial Number: 1 (0x1)
        Signature Algorithm: sha256WithRSAEncryption
        Issuer: CN=casablanca.modusbox.com
        Validity
            Not Before: Sep 18 13:17:13 2018 GMT
            Not After : Sep 15 13:17:13 2028 GMT
        Subject: C=US, ST=Washington, L=Seattle, O=ModusBox Inc., CN=casablanca.modusbox.com
        Subject Public Key Info:
            Public Key Algorithm: rsaEncryption
                RSA Public-Key: (2048 bit)
                Modulus:
                    00:97:3c:b8:77:bf:d2:a1:dd:88:11:f6:09:ce:ae:
                    8b:fd:8a:2f:e9:63:ea:5c:fd:ee:ad:cd:84:f1:86:
                    e7:bb:16:a3:e1:36:0a:77:70:96:74:24:b1:a6:b4:
                    f7:be:24:cf:f5:a0:fa:b0:82:a5:11:c6:19:ed:23:
                    c9:cb:26:49:e8:5b:76:d6:de:59:ec:74:83:3b:9b:
                    1f:44:99:41:62:cb:e5:12:1a:8b:e6:a2:c5:21:e9:
                    a9:fb:4d:3a:b3:91:73:7f:0b:43:d2:7a:f8:46:bd:
                    dd:4e:11:85:77:c3:3c:6b:b0:7d:07:c0:32:c2:ac:
                    55:6c:a9:87:cd:9a:f9:50:0a:92:a3:18:c7:f9:8f:
                    aa:bd:ee:1a:67:c7:03:f2:8c:c9:46:86:6b:28:28:
                    a6:3e:84:62:82:c1:4e:7d:d9:ad:fe:c8:66:d4:22:
                    7e:cb:ec:90:a8:7b:dd:ff:36:9f:f4:0a:00:a4:7c:
                    18:81:da:f9:4e:08:1f:3b:5d:96:3c:38:32:99:a0:
                    55:6f:90:3f:72:24:70:d9:9d:9b:8d:2e:d3:b9:76:
                    35:e1:65:ce:00:57:e2:f0:f0:17:3a:a0:7f:e1:2e:
                    c7:04:0c:44:58:9e:89:80:8c:e9:65:b4:0e:b1:3b:
                    b0:da:8c:47:66:3e:2f:6b:54:7a:a5:db:62:38:b6:
                    cb:e3
                Exponent: 65537 (0x10001)
        X509v3 extensions:
            X509v3 Subject Key Identifier: 
                84:47:94:01:E4:65:BA:29:9D:94:8D:81:DE:92:11:D2:35:59:C2:32
            X509v3 Authority Key Identifier: 
                keyid:D8:76:EB:59:BF:75:FD:7A:BB:8D:E3:C0:C9:CE:9E:02:B9:B6:3D:2D

            X509v3 Basic Constraints: 
                CA:FALSE
            X509v3 Key Usage: 
                Digital Signature, Non Repudiation, Key Encipherment
            X509v3 Subject Alternative Name: 
                DNS:
            Netscape Comment: 
                Generated by Casablanca Test CA
    Signature Algorithm: sha256WithRSAEncryption
         3d:53:42:f1:cb:9e:1e:98:76:91:8e:13:35:60:28:43:d4:c4:
         ba:19:70:81:af:bd:99:f0:1c:30:77:e4:55:53:c6:aa:02:08:
         c1:dd:5c:07:9c:59:66:dc:c2:ff:7c:fc:dd:11:5e:82:bd:ff:
         70:f1:e9:79:5c:1f:d6:9f:77:a1:db:5e:8c:5f:23:77:cf:a7:
         aa:b1:8a:8c:2e:6b:0c:38:a6:31:b6:06:6a:72:33:44:20:1e:
         01:ea:eb:ef:1a:15:54:1d:9c:95:43:38:13:dd:c2:82:c1:21:
         23:cb:05:5d:32:82:f9:3b:80:12:80:e6:33:07:04:ed:e0:4c:
         6a:00:11:89:b3:9a:5f:f2:0b:9c:17:fb:86:55:e2:80:c0:e4:
         4a:6c:fe:cf:87:81:dd:d1:20:89:56:c6:5e:b3:bc:0e:50:0b:
         ad:d3:29:e8:f1:2c:8e:e6:6b:b3:43:07:b5:2f:83:78:bf:db:
         4f:79:d3:3f:20:0d:91:4c:28:de:3a:ce:67:d1:58:48:1e:24:
         f9:4f:9c:2b:34:32:29:c7:2d:ae:a5:85:86:a5:f7:d5:32:62:
         c2:d0:da:7f:f3:b7:f1:6f:62:09:0f:c7:57:0c:eb:f0:ed:50:
         ef:ee:a6:04:2f:53:37:a9:19:d4:a8:9b:d5:a3:83:ed:90:2b:
         a4:90:0d:86
-----BEGIN CERTIFICATE-----
MIIDpDCCAoygAwIBAgIBATANBgkqhkiG9w0BAQsFADAiMSAwHgYDVQQDDBdjYXNh
YmxhbmNhLm1vZHVzYm94LmNvbTAeFw0xODA5MTgxMzE3MTNaFw0yODA5MTUxMzE3
MTNaMG4xCzAJBgNVBAYTAlVTMRMwEQYDVQQIDApXYXNoaW5ndG9uMRAwDgYDVQQH
DAdTZWF0dGxlMRYwFAYDVQQKDA1Nb2R1c0JveCBJbmMuMSAwHgYDVQQDDBdjYXNh
YmxhbmNhLm1vZHVzYm94LmNvbTCCASIwDQYJKoZIhvcNAQEBBQADggEPADCCAQoC
ggEBAJc8uHe/0qHdiBH2Cc6ui/2KL+lj6lz97q3NhPGG57sWo+E2CndwlnQksaa0
974kz/Wg+rCCpRHGGe0jycsmSehbdtbeWex0gzubH0SZQWLL5RIai+aixSHpqftN
OrORc38LQ9J6+Ea93U4RhXfDPGuwfQfAMsKsVWyph82a+VAKkqMYx/mPqr3uGmfH
A/KMyUaGaygopj6EYoLBTn3Zrf7IZtQifsvskKh73f82n/QKAKR8GIHa+U4IHztd
ljw4MpmgVW+QP3IkcNmdm40u07l2NeFlzgBX4vDwFzqgf+EuxwQMRFieiYCM6WW0
DrE7sNqMR2Y+L2tUeqXbYji2y+MCAwEAAaOBmDCBlTAdBgNVHQ4EFgQUhEeUAeRl
uimdlI2B3pIR0jVZwjIwHwYDVR0jBBgwFoAU2HbrWb91/Xq7jePAyc6eArm2PS0w
CQYDVR0TBAIwADALBgNVHQ8EBAMCBeAwCwYDVR0RBAQwAoIAMC4GCWCGSAGG+EIB
DQQhFh9HZW5lcmF0ZWQgYnkgQ2FzYWJsYW5jYSBUZXN0IENBMA0GCSqGSIb3DQEB
CwUAA4IBAQA9U0Lxy54emHaRjhM1YChD1MS6GXCBr72Z8Bwwd+RVU8aqAgjB3VwH
nFlm3ML/fPzdEV6Cvf9w8el5XB/Wn3eh216MXyN3z6eqsYqMLmsMOKYxtgZqcjNE
IB4B6uvvGhVUHZyVQzgT3cKCwSEjywVdMoL5O4ASgOYzBwTt4ExqABGJs5pf8guc
F/uGVeKAwORKbP7Ph4Hd0SCJVsZes7wOUAut0yno8SyO5muzQwe1L4N4v9tPedM/
IA2RTCjeOs5n0VhIHiT5T5wrNDIpxy2upYWGpffVMmLC0Np/87fxb2IJD8dXDOvw
7VDv7qYEL1M3qRnUqJvVo4PtkCukkA2G
-----END CERTIFICATE-----
